; Function Attrs: mustprogress uwtable
define void @usnum_setToInt64_77(ptr noundef %0, i64 noundef %1, ptr noundef %2) local_unnamed_addr #1 personality ptr @__gxx_personality_v0 {
  %4 = alloca %"class.icu_77::number::SimpleNumber", align 8
  %5 = load i32, ptr %2, align 4, !tbaa !13
  %6 = icmp slt i32 %5, 1
  br i1 %6, label %7, label %_ZN6icu_7713IcuCApiHelperI13USimpleNumberNS_6number4impl17USimpleNumberDataELi1397640448EE8validateEPS1_R10UErrorCode.exit.thread

7:                                                ; preds = %3
  %8 = icmp eq ptr %0, null
  br i1 %8, label %.sink.split.i.i, label %9

9:                                                ; preds = %7
  %10 = load i32, ptr %0, align 4, !tbaa !77
  %.not9.i.i = icmp eq i32 %10, 1397640448
  br i1 %.not9.i.i, label %_ZN6icu_7713IcuCApiHelperI13USimpleNumberNS_6number4impl17USimpleNumberDataELi1397640448EE8validateEPS1_R10UErrorCode.exit, label %.sink.split.i.i

.sink.split.i.i:                                  ; preds = %9, %7
  %.sink.i.i = phi i32 [ 1, %7 ], [ 3, %9 ]
  store i32 %.sink.i.i, ptr %2, align 4, !tbaa !13
  br label %_ZN6icu_7713IcuCApiHelperI13USimpleNumberNS_6number4impl17USimpleNumberDataELi1397640448EE8validateEPS1_R10UErrorCode.exit.thread

_ZN6icu_7713IcuCApiHelperI13USimpleNumberNS_6number4impl17USimpleNumberDataELi1397640448EE8validateEPS1_R10UErrorCode.exit: ; preds = %9
  call void @llvm.lifetime.start.p0(i64 16, ptr nonnull %4) #15
  call void @_ZN6icu_776number12SimpleNumber8forInt64ElR10UErrorCode(ptr dead_on_unwind nonnull writable sret(%"class.icu_77::number::SimpleNumber") align 8 %4, i64 noundef %1, ptr noundef nonnull align 4 dereferenceable(4) %2)
  %11 = getelementptr inbounds nuw i8, ptr %0, i64 8
  invoke void @_ZN6icu_776number12SimpleNumber7cleanupEv(ptr noundef nonnull align 8 dereferenceable(12) %11)
          to label %_ZN6icu_776number12SimpleNumberaSEOS1_.exit unwind label %12

12:                                               ; preds = %_ZN6icu_7713IcuCApiHelperI13USimpleNumberNS_6number4impl17USimpleNumberDataELi1397640448EE8validateEPS1_R10UErrorCode.exit
  %13 = landingpad { ptr, i32 }
          catch ptr null
  %14 = extractvalue { ptr, i32 } %13, 0
  call void @__clang_call_terminate(ptr %14) #17
  unreachable

_ZN6icu_776number12SimpleNumberaSEOS1_.exit:      ; preds = %_ZN6icu_7713IcuCApiHelperI13USimpleNumberNS_6number4impl17USimpleNumberDataELi1397640448EE8validateEPS1_R10UErrorCode.exit
  %15 = load ptr, ptr %4, align 8, !tbaa !82
  store ptr %15, ptr %11, align 8, !tbaa !82
  %16 = getelementptr inbounds nuw i8, ptr %4, i64 8
  %17 = load i32, ptr %16, align 8, !tbaa !79
  %18 = getelementptr inbounds nuw i8, ptr %0, i64 16
  store i32 %17, ptr %18, align 8, !tbaa !79
  store ptr null, ptr %4, align 8, !tbaa !82
  invoke void @_ZN6icu_776number12SimpleNumber7cleanupEv(ptr noundef nonnull align 8 dereferenceable(12) %4)
          to label %_ZN6icu_776number12SimpleNumberD2Ev.exit unwind label %19

19:                                               ; preds = %_ZN6icu_776number12SimpleNumberaSEOS1_.exit
  %20 = landingpad { ptr, i32 }
          catch ptr null
  %21 = extractvalue { ptr, i32 } %20, 0
  call void @__clang_call_terminate(ptr %21) #17
  unreachable

_ZN6icu_776number12SimpleNumberD2Ev.exit:         ; preds = %_ZN6icu_776number12SimpleNumberaSEOS1_.exit
  call void @llvm.lifetime.end.p0(i64 16, ptr nonnull %4) #15
  br label %_ZN6icu_7713IcuCApiHelperI13USimpleNumberNS_6number4impl17USimpleNumberDataELi1397640448EE8validateEPS1_R10UErrorCode.exit.thread

_ZN6icu_7713IcuCApiHelperI13USimpleNumberNS_6number4impl17USimpleNumberDataELi1397640448EE8validateEPS1_R10UErrorCode.exit.thread: ; preds = %.sink.split.i.i, %3, %_ZN6icu_776number12SimpleNumberD2Ev.exit
  ret void
}